; Function Attrs: nounwind uwtable
define hidden ptr @je_prof_tdata_init(ptr noundef %0) local_unnamed_addr #4 {
  %2 = tail call i32 @pthread_mutex_trylock(ptr noundef nonnull getelementptr inbounds nuw (i8, ptr @next_thr_uid_mtx, i64 72)) #10
  %.not.i.i = icmp eq i32 %2, 0
  br i1 %.not.i.i, label %malloc_mutex_trylock_final.exit.i.i, label %3

malloc_mutex_trylock_final.exit.i.i:              ; preds = %1
  store atomic i8 1, ptr getelementptr inbounds nuw (i8, ptr @next_thr_uid_mtx, i64 64) monotonic, align 8
  br label %4

3:                                                ; preds = %1
  tail call void @je_malloc_mutex_lock_slow(ptr noundef nonnull @next_thr_uid_mtx) #10
  br label %4

4:                                                ; preds = %3, %malloc_mutex_trylock_final.exit.i.i
  %5 = load i64, ptr getelementptr inbounds nuw (i8, ptr @next_thr_uid_mtx, i64 56), align 8, !tbaa !7
  %6 = add i64 %5, 1
  store i64 %6, ptr getelementptr inbounds nuw (i8, ptr @next_thr_uid_mtx, i64 56), align 8, !tbaa !7
  %7 = load ptr, ptr getelementptr inbounds nuw (i8, ptr @next_thr_uid_mtx, i64 48), align 8, !tbaa !15
  %.not.i.i.i = icmp eq ptr %7, %0
  br i1 %.not.i.i.i, label %prof_thr_uid_alloc.exit, label %8

8:                                                ; preds = %4
  store ptr %0, ptr getelementptr inbounds nuw (i8, ptr @next_thr_uid_mtx, i64 48), align 8, !tbaa !15
  %9 = load i64, ptr getelementptr inbounds nuw (i8, ptr @next_thr_uid_mtx, i64 40), align 8, !tbaa !16
  %10 = add i64 %9, 1
  store i64 %10, ptr getelementptr inbounds nuw (i8, ptr @next_thr_uid_mtx, i64 40), align 8, !tbaa !16
  br label %prof_thr_uid_alloc.exit

prof_thr_uid_alloc.exit:                          ; preds = %4, %8
  %11 = load i64, ptr @next_thr_uid, align 8, !tbaa !17
  %12 = add i64 %11, 1
  store i64 %12, ptr @next_thr_uid, align 8, !tbaa !17
  store atomic i8 0, ptr getelementptr inbounds nuw (i8, ptr @next_thr_uid_mtx, i64 64) monotonic, align 8
  %13 = tail call i32 @pthread_mutex_unlock(ptr noundef nonnull getelementptr inbounds nuw (i8, ptr @next_thr_uid_mtx, i64 72)) #10
  %14 = tail call i32 @pthread_mutex_trylock(ptr noundef nonnull getelementptr inbounds nuw (i8, ptr @prof_thread_active_init_mtx, i64 72)) #10
  %.not.i.i3 = icmp eq i32 %14, 0
  br i1 %.not.i.i3, label %malloc_mutex_trylock_final.exit.i.i5, label %15

malloc_mutex_trylock_final.exit.i.i5:             ; preds = %prof_thr_uid_alloc.exit
  store atomic i8 1, ptr getelementptr inbounds nuw (i8, ptr @prof_thread_active_init_mtx, i64 64) monotonic, align 8
  br label %16

15:                                               ; preds = %prof_thr_uid_alloc.exit
  tail call void @je_malloc_mutex_lock_slow(ptr noundef nonnull @prof_thread_active_init_mtx) #10
  br label %16

16:                                               ; preds = %15, %malloc_mutex_trylock_final.exit.i.i5
  %17 = load i64, ptr getelementptr inbounds nuw (i8, ptr @prof_thread_active_init_mtx, i64 56), align 8, !tbaa !7
  %18 = add i64 %17, 1
  store i64 %18, ptr getelementptr inbounds nuw (i8, ptr @prof_thread_active_init_mtx, i64 56), align 8, !tbaa !7
  %19 = load ptr, ptr getelementptr inbounds nuw (i8, ptr @prof_thread_active_init_mtx, i64 48), align 8, !tbaa !15
  %.not.i.i.i4 = icmp eq ptr %19, %0
  br i1 %.not.i.i.i4, label %je_prof_thread_active_init_get.exit, label %20

20:                                               ; preds = %16
  store ptr %0, ptr getelementptr inbounds nuw (i8, ptr @prof_thread_active_init_mtx, i64 48), align 8, !tbaa !15
  %21 = load i64, ptr getelementptr inbounds nuw (i8, ptr @prof_thread_active_init_mtx, i64 40), align 8, !tbaa !16
  %22 = add i64 %21, 1
  store i64 %22, ptr getelementptr inbounds nuw (i8, ptr @prof_thread_active_init_mtx, i64 40), align 8, !tbaa !16
  br label %je_prof_thread_active_init_get.exit

je_prof_thread_active_init_get.exit:              ; preds = %16, %20
  %23 = load i8, ptr @prof_thread_active_init, align 1, !tbaa !18, !range !20, !noundef !21
  %24 = trunc nuw i8 %23 to i1
  store atomic i8 0, ptr getelementptr inbounds nuw (i8, ptr @prof_thread_active_init_mtx, i64 64) monotonic, align 8
  %25 = tail call i32 @pthread_mutex_unlock(ptr noundef nonnull getelementptr inbounds nuw (i8, ptr @prof_thread_active_init_mtx, i64 72)) #10
  %26 = tail call ptr @je_prof_tdata_init_impl(ptr noundef %0, i64 noundef %11, i64 noundef 0, ptr noundef null, i1 noundef zeroext %24) #10
  ret ptr %26
}